target datalayout = "e-m:e-p270:32:32-p271:32:32-p272:64:64-i64:64-i128:128-f80:128-n8:16:32:64-S128"
target triple = "x86_64-pc-linux-gnu"

%"class.tl::expected" = type { %"struct.tl::detail::expected_move_assign_base.base", [7 x i8] }
%"struct.tl::detail::expected_move_assign_base.base" = type { %"struct.tl::detail::expected_copy_assign_base.base" }
%"struct.tl::detail::expected_copy_assign_base.base" = type { %"struct.tl::detail::expected_move_base.base" }
%"struct.tl::detail::expected_move_base.base" = type { %"struct.tl::detail::expected_copy_base.base" }
%"struct.tl::detail::expected_copy_base.base" = type { %"struct.tl::detail::expected_operations_base.base" }
%"struct.tl::detail::expected_operations_base.base" = type { %"struct.tl::detail::expected_storage_base.base" }
%"struct.tl::detail::expected_storage_base.base" = type <{ %union.anon.38, i8 }>
%union.anon.38 = type { %"class.LIEF::PE::Signature" }
%"class.LIEF::PE::Signature" = type { %"class.LIEF::Object", i32, i32, %"class.LIEF::PE::ContentInfo", %"class.std::vector.47", %"class.std::vector.52", i64, i64, %"class.std::vector.57" }
%"class.LIEF::Object" = type { ptr }
%"class.LIEF::PE::ContentInfo" = type { %"class.LIEF::Object", %"class.std::unique_ptr.39" }
%"class.std::unique_ptr.39" = type { %"struct.std::__uniq_ptr_data.40" }
%"struct.std::__uniq_ptr_data.40" = type { %"class.std::__uniq_ptr_impl.41" }
%"class.std::__uniq_ptr_impl.41" = type { %"class.std::tuple.42" }
%"class.std::tuple.42" = type { %"struct.std::_Tuple_impl.43" }
%"struct.std::_Tuple_impl.43" = type { %"struct.std::_Head_base.46" }
%"struct.std::_Head_base.46" = type { ptr }
%"class.std::vector.47" = type { %"struct.std::_Vector_base.48" }
%"struct.std::_Vector_base.48" = type { %"struct.std::_Vector_base<LIEF::PE::x509, std::allocator<LIEF::PE::x509>>::_Vector_impl" }
%"struct.std::_Vector_base<LIEF::PE::x509, std::allocator<LIEF::PE::x509>>::_Vector_impl" = type { %"struct.std::_Vector_base<LIEF::PE::x509, std::allocator<LIEF::PE::x509>>::_Vector_impl_data" }
%"struct.std::_Vector_base<LIEF::PE::x509, std::allocator<LIEF::PE::x509>>::_Vector_impl_data" = type { ptr, ptr, ptr }
%"class.std::vector.52" = type { %"struct.std::_Vector_base.53" }
%"struct.std::_Vector_base.53" = type { %"struct.std::_Vector_base<LIEF::PE::SignerInfo, std::allocator<LIEF::PE::SignerInfo>>::_Vector_impl" }
%"struct.std::_Vector_base<LIEF::PE::SignerInfo, std::allocator<LIEF::PE::SignerInfo>>::_Vector_impl" = type { %"struct.std::_Vector_base<LIEF::PE::SignerInfo, std::allocator<LIEF::PE::SignerInfo>>::_Vector_impl_data" }
%"struct.std::_Vector_base<LIEF::PE::SignerInfo, std::allocator<LIEF::PE::SignerInfo>>::_Vector_impl_data" = type { ptr, ptr, ptr }
%"class.std::vector.57" = type { %"struct.std::_Vector_base.58" }
%"struct.std::_Vector_base.58" = type { %"struct.std::_Vector_base<unsigned char, std::allocator<unsigned char>>::_Vector_impl" }
%"struct.std::_Vector_base<unsigned char, std::allocator<unsigned char>>::_Vector_impl" = type { %"struct.std::_Vector_base<unsigned char, std::allocator<unsigned char>>::_Vector_impl_data" }
%"struct.std::_Vector_base<unsigned char, std::allocator<unsigned char>>::_Vector_impl_data" = type { ptr, ptr, ptr }
%"class.LIEF::BinaryStream" = type { ptr, i64, i8, i32 }

; Function Attrs: mustprogress nounwind uwtable
define linkonce_odr hidden noundef nonnull align 8 dereferenceable(24) ptr @_ZNK4LIEF12BinaryStream13increment_posEm(ptr noundef nonnull align 8 dereferenceable(24) %0, i64 noundef %1) #0 comdat align 2 {
  %3 = alloca ptr, align 8
  %4 = alloca i64, align 8
  store ptr %0, ptr %3, align 8, !tbaa !54
  store i64 %1, ptr %4, align 8, !tbaa !13
  %5 = load ptr, ptr %3, align 8
  %6 = load i64, ptr %4, align 8, !tbaa !13
  %7 = getelementptr inbounds nuw %"class.LIEF::BinaryStream", ptr %5, i32 0, i32 1
  %8 = load i64, ptr %7, align 8, !tbaa !56
  %9 = add i64 %8, %6
  store i64 %9, ptr %7, align 8, !tbaa !56
  ret ptr %5
}

; Function Attrs: mustprogress nounwind uwtable
define void @_ZN4LIEF2PE15SignatureParser5parseERNS_12BinaryStreamEb(ptr dead_on_unwind noalias writable sret(%"class.tl::expected") align 8 %0, ptr noundef nonnull align 8 dereferenceable(24) %1, i1 noundef zeroext %2) #0 align 2 {
  %4 = alloca ptr, align 8
  %5 = alloca ptr, align 8
  %6 = alloca i8, align 1
  store ptr %0, ptr %4, align 8
  store ptr %1, ptr %5, align 8, !tbaa !54
  %7 = zext i1 %2 to i8
  store i8 %7, ptr %6, align 1, !tbaa !47
  %8 = load i8, ptr %6, align 1, !tbaa !47, !range !49, !noundef !50
  %9 = trunc i8 %8 to i1
  br i1 %9, label %10, label %13

10:                                               ; preds = %3
  %11 = load ptr, ptr %5, align 8, !tbaa !54
  %12 = call noundef nonnull align 8 dereferenceable(24) ptr @_ZNK4LIEF12BinaryStream13increment_posEm(ptr noundef nonnull align 8 dereferenceable(24) %11, i64 noundef 8)
  br label %13

13:                                               ; preds = %10, %3
  %14 = load ptr, ptr %5, align 8, !tbaa !54
  call void @_ZN4LIEF2PE15SignatureParser15parse_signatureERNS_12BinaryStreamE(ptr dead_on_unwind writable sret(%"class.tl::expected") align 8 %0, ptr noundef nonnull align 8 dereferenceable(24) %14)
  ret void
}