; Function Attrs: mustprogress nounwind uwtable
define void @_ZN4LIEF2PE15SignatureParser5parseERNS_12BinaryStreamEb(ptr dead_on_unwind noalias writable sret(%"class.tl::expected") align 8 %0, ptr noundef nonnull align 8 dereferenceable(24) %1, i1 noundef zeroext %2) local_unnamed_addr #1 align 2 {
  br i1 %2, label %4, label %8

4:                                                ; preds = %3
  %5 = getelementptr inbounds nuw i8, ptr %1, i64 8
  %6 = load i64, ptr %5, align 8, !tbaa !41
  %7 = add i64 %6, 8
  store i64 %7, ptr %5, align 8, !tbaa !41
  br label %8

8:                                                ; preds = %4, %3
  tail call void @_ZN4LIEF2PE15SignatureParser15parse_signatureERNS_12BinaryStreamE(ptr dead_on_unwind writable sret(%"class.tl::expected") align 8 %0, ptr noundef nonnull align 8 dereferenceable(24) %1)
  ret void
}